target datalayout = "e-m:e-p270:32:32-p271:32:32-p272:64:64-i64:64-i128:128-f80:128-n8:16:32:64-S128"
target triple = "x86_64-pc-linux-gnu"

%struct.H5O_pline_t = type { %struct.H5O_shared_t, i32, i64, i64, ptr }
%struct.H5O_shared_t = type { i32, ptr, i32, %union.anon.1 }
%union.anon.1 = type { %struct.H5O_mesg_loc_t }
%struct.H5O_mesg_loc_t = type { i32, i64 }
%struct.H5Z_filter_info_t = type { i32, i32, [12 x i8], ptr, i64, [4 x i32], ptr }

@.str = private unnamed_addr constant [97 x i8] c"generated/home/dtcxzyw/WorkSpace/Projects/compilers/llvm-opt-benchmark/bench/hdf5/hdf5/src/H5Z.c\00", align 1
@H5E_PLINE_g = external global i64, align 8
@H5E_NOTFOUND_g = external global i64, align 8
@.str.27 = private unnamed_addr constant [23 x i8] c"filter not in pipeline\00", align 1
@__func__.H5Z_filter_info = private unnamed_addr constant [16 x i8] c"H5Z_filter_info\00", align 1

; Function Attrs: nounwind uwtable
define ptr @H5Z_filter_info(ptr noundef %0, i32 noundef %1) #0 {
  %3 = alloca ptr, align 8
  %4 = alloca i32, align 4
  %5 = alloca i64, align 8
  %6 = alloca ptr, align 8
  %7 = alloca i8, align 1
  store ptr %0, ptr %3, align 8
  store i32 %1, ptr %4, align 4
  store ptr null, ptr %6, align 8
  store i8 0, ptr %7, align 1
  store i64 0, ptr %5, align 8
  br label %8

8:                                                ; preds = %26, %2
  %9 = load i64, ptr %5, align 8
  %10 = load ptr, ptr %3, align 8
  %11 = getelementptr inbounds %struct.H5O_pline_t, ptr %10, i32 0, i32 3
  %12 = load i64, ptr %11, align 8
  %13 = icmp ult i64 %9, %12
  br i1 %13, label %14, label %29

14:                                               ; preds = %8
  %15 = load ptr, ptr %3, align 8
  %16 = getelementptr inbounds %struct.H5O_pline_t, ptr %15, i32 0, i32 4
  %17 = load ptr, ptr %16, align 8
  %18 = load i64, ptr %5, align 8
  %19 = getelementptr inbounds %struct.H5Z_filter_info_t, ptr %17, i64 %18
  %20 = getelementptr inbounds %struct.H5Z_filter_info_t, ptr %19, i32 0, i32 0
  %21 = load i32, ptr %20, align 8
  %22 = load i32, ptr %4, align 4
  %23 = icmp eq i32 %21, %22
  br i1 %23, label %24, label %25

24:                                               ; preds = %14
  br label %29

25:                                               ; preds = %14
  br label %26

26:                                               ; preds = %25
  %27 = load i64, ptr %5, align 8
  %28 = add i64 %27, 1
  store i64 %28, ptr %5, align 8
  br label %8

29:                                               ; preds = %24, %8
  %30 = load i64, ptr %5, align 8
  %31 = load ptr, ptr %3, align 8
  %32 = getelementptr inbounds %struct.H5O_pline_t, ptr %31, i32 0, i32 3
  %33 = load i64, ptr %32, align 8
  %34 = icmp uge i64 %30, %33
  br i1 %34, label %35, label %50

35:                                               ; preds = %29
  br label %36

36:                                               ; preds = %35
  br label %37

37:                                               ; preds = %36
  br label %38

38:                                               ; preds = %37
  %39 = load i64, ptr @H5E_PLINE_g, align 8
  %40 = load i64, ptr @H5E_NOTFOUND_g, align 8
  %41 = call i32 (ptr, ptr, i32, i64, i64, ptr, ...) @H5E_printf_stack(ptr noundef @.str, ptr noundef @__func__.H5Z_filter_info, i32 noundef 1544, i64 noundef %39, i64 noundef %40, ptr noundef @.str.27)
  br label %42

42:                                               ; preds = %38
  store i8 1, ptr %7, align 1
  %43 = load i8, ptr %7, align 1
  %44 = trunc i8 %43 to i1
  %45 = zext i1 %44 to i8
  store i8 %45, ptr %7, align 1
  br label %46

46:                                               ; preds = %42
  br label %47

47:                                               ; preds = %46
  store ptr null, ptr %6, align 8
  br label %56

48:                                               ; No predecessors!
  br label %49

49:                                               ; preds = %48
  br label %50

50:                                               ; preds = %49, %29
  %51 = load ptr, ptr %3, align 8
  %52 = getelementptr inbounds %struct.H5O_pline_t, ptr %51, i32 0, i32 4
  %53 = load ptr, ptr %52, align 8
  %54 = load i64, ptr %5, align 8
  %55 = getelementptr inbounds %struct.H5Z_filter_info_t, ptr %53, i64 %54
  store ptr %55, ptr %6, align 8
  br label %56

56:                                               ; preds = %50, %47
  %57 = load ptr, ptr %6, align 8
  ret ptr %57
}