; Function Attrs: nounwind uwtable
define noundef ptr @H5Z_filter_info(ptr nocapture noundef readonly %0, i32 noundef %1) local_unnamed_addr #0 {
  %3 = getelementptr inbounds i8, ptr %0, i64 56
  %4 = load i64, ptr %3, align 8
  %.not = icmp eq i64 %4, 0
  br i1 %.not, label %._crit_edge, label %.lr.ph

.lr.ph:                                           ; preds = %2
  %5 = getelementptr inbounds i8, ptr %0, i64 64
  %6 = load ptr, ptr %5, align 8
  br label %7

7:                                                ; preds = %.lr.ph, %11
  %.01113 = phi i64 [ 0, %.lr.ph ], [ %12, %11 ]
  %8 = getelementptr inbounds %struct.H5Z_filter_info_t, ptr %6, i64 %.01113
  %9 = load i32, ptr %8, align 8
  %10 = icmp eq i32 %9, %1
  br i1 %10, label %.loopexit, label %11

11:                                               ; preds = %7
  %12 = add nuw i64 %.01113, 1
  %exitcond.not = icmp eq i64 %12, %4
  br i1 %exitcond.not, label %._crit_edge, label %7

._crit_edge:                                      ; preds = %11, %2
  %13 = load i64, ptr @H5E_PLINE_g, align 8
  %14 = load i64, ptr @H5E_NOTFOUND_g, align 8
  %15 = tail call i32 (ptr, ptr, i32, i64, i64, ptr, ...) @H5E_printf_stack(ptr noundef nonnull @.str, ptr noundef nonnull @__func__.H5Z_filter_info, i32 noundef 1544, i64 noundef %13, i64 noundef %14, ptr noundef nonnull @.str.27) #9
  br label %.loopexit

.loopexit:                                        ; preds = %7, %._crit_edge
  %.0 = phi ptr [ null, %._crit_edge ], [ %8, %7 ]
  ret ptr %.0
}